; ModuleID = '62/172.c'
source_filename = "62/172.c"
target datalayout = "e-m:e-p270:32:32-p271:32:32-p272:64:64-i64:64-f80:128-n8:16:32:64-S128"
target triple = "x86_64-pc-linux-gnu"

@.str = private unnamed_addr constant [3 x i8] c"%c\00", align 1

; Function Attrs: noinline nounwind uwtable
define dso_local i32 @main() #0 {
  %1 = alloca i32, align 4
  %2 = alloca [100 x i8], align 16
  %3 = alloca i32, align 4
  %4 = alloca i32, align 4
  %5 = alloca [100 x i32], align 16
  store i32 0, i32* %1, align 4
  store i32 0, i32* %3, align 4
  br label %6

6:                                                ; preds = %13, %0
  %7 = load i32, i32* %3, align 4
  %8 = icmp slt i32 %7, 100
  br i1 %8, label %9, label %16

9:                                                ; preds = %6
  %10 = load i32, i32* %3, align 4
  %11 = sext i32 %10 to i64
  %12 = getelementptr inbounds [100 x i32], [100 x i32]* %5, i64 0, i64 %11
  store i32 0, i32* %12, align 4
  br label %13

13:                                               ; preds = %9
  %14 = load i32, i32* %3, align 4
  %15 = add nsw i32 %14, 1
  store i32 %15, i32* %3, align 4
  br label %6

16:                                               ; preds = %6
  store i32 0, i32* %3, align 4
  br label %17

17:                                               ; preds = %30, %16
  %18 = load i32, i32* %3, align 4
  %19 = sext i32 %18 to i64
  %20 = getelementptr inbounds [100 x i8], [100 x i8]* %2, i64 0, i64 %19
  %21 = call i32 (i8*, ...) @__isoc99_scanf(i8* getelementptr inbounds ([3 x i8], [3 x i8]* @.str, i64 0, i64 0), i8* %20)
  %22 = load i32, i32* %3, align 4
  %23 = sext i32 %22 to i64
  %24 = getelementptr inbounds [100 x i8], [100 x i8]* %2, i64 0, i64 %23
  %25 = load i8, i8* %24, align 1
  %26 = sext i8 %25 to i32
  %27 = icmp eq i32 %26, 10
  br i1 %27, label %28, label %29

28:                                               ; preds = %17
  br label %33

29:                                               ; preds = %17
  br label %30

30:                                               ; preds = %29
  %31 = load i32, i32* %3, align 4
  %32 = add nsw i32 %31, 1
  store i32 %32, i32* %3, align 4
  br label %17

33:                                               ; preds = %28
  %34 = load i32, i32* %3, align 4
  store i32 %34, i32* %4, align 4
  store i32 0, i32* %3, align 4
  br label %35

35:                                               ; preds = %61, %33
  %36 = load i32, i32* %3, align 4
  %37 = load i32, i32* %4, align 4
  %38 = sub nsw i32 %37, 1
  %39 = icmp slt i32 %36, %38
  br i1 %39, label %40, label %64

40:                                               ; preds = %35
  %41 = load i32, i32* %3, align 4
  %42 = sext i32 %41 to i64
  %43 = getelementptr inbounds [100 x i8], [100 x i8]* %2, i64 0, i64 %42
  %44 = load i8, i8* %43, align 1
  %45 = sext i8 %44 to i32
  %46 = icmp eq i32 %45, 32
  br i1 %46, label %47, label %60

47:                                               ; preds = %40
  %48 = load i32, i32* %3, align 4
  %49 = add nsw i32 %48, 1
  %50 = sext i32 %49 to i64
  %51 = getelementptr inbounds [100 x i8], [100 x i8]* %2, i64 0, i64 %50
  %52 = load i8, i8* %51, align 1
  %53 = sext i8 %52 to i32
  %54 = icmp eq i32 %53, 32
  br i1 %54, label %55, label %60

55:                                               ; preds = %47
  %56 = load i32, i32* %3, align 4
  %57 = add nsw i32 %56, 1
  %58 = sext i32 %57 to i64
  %59 = getelementptr inbounds [100 x i32], [100 x i32]* %5, i64 0, i64 %58
  store i32 1, i32* %59, align 4
  br label %60

60:                                               ; preds = %55, %47, %40
  br label %61

61:                                               ; preds = %60
  %62 = load i32, i32* %3, align 4
  %63 = add nsw i32 %62, 1
  store i32 %63, i32* %3, align 4
  br label %35

64:                                               ; preds = %35
  store i32 0, i32* %3, align 4
  br label %65

65:                                               ; preds = %83, %64
  %66 = load i32, i32* %3, align 4
  %67 = load i32, i32* %4, align 4
  %68 = icmp slt i32 %66, %67
  br i1 %68, label %69, label %86

69:                                               ; preds = %65
  %70 = load i32, i32* %3, align 4
  %71 = sext i32 %70 to i64
  %72 = getelementptr inbounds [100 x i32], [100 x i32]* %5, i64 0, i64 %71
  %73 = load i32, i32* %72, align 4
  %74 = icmp eq i32 %73, 0
  br i1 %74, label %75, label %82

75:                                               ; preds = %69
  %76 = load i32, i32* %3, align 4
  %77 = sext i32 %76 to i64
  %78 = getelementptr inbounds [100 x i8], [100 x i8]* %2, i64 0, i64 %77
  %79 = load i8, i8* %78, align 1
  %80 = sext i8 %79 to i32
  %81 = call i32 (i8*, ...) @printf(i8* getelementptr inbounds ([3 x i8], [3 x i8]* @.str, i64 0, i64 0), i32 %80)
  br label %82

82:                                               ; preds = %75, %69
  br label %83

83:                                               ; preds = %82
  %84 = load i32, i32* %3, align 4
  %85 = add nsw i32 %84, 1
  store i32 %85, i32* %3, align 4
  br label %65

86:                                               ; preds = %65
  %87 = load i32, i32* %1, align 4
  ret i32 %87
}

declare dso_local i32 @__isoc99_scanf(i8*, ...) #1

declare dso_local i32 @printf(i8*, ...) #1


!llvm.module.flags = !{!0}
!llvm.ident = !{!1}

!0 = !{i32 1, !"wchar_size", i32 4}
!1 = !{!"clang version 10.0.0-4ubuntu1 "}
